; Function Attrs: mustprogress nofree norecurse nosync nounwind willreturn memory(read, inaccessiblemem: none) uwtable
define hidden noundef zeroext i1 @_ZN3p2t5Sweep9IsShallowERNS_12SweepContextERNS_4NodeE(ptr noundef nonnull readnone align 8 captures(none) dereferenceable(24) %0, ptr noundef nonnull readonly align 8 captures(none) dereferenceable(200) %1, ptr noundef nonnull readonly align 8 captures(none) dereferenceable(40) %2) local_unnamed_addr #11 align 2 {
  %4 = getelementptr inbounds nuw i8, ptr %1, i64 56
  %5 = load i8, ptr %4, align 8, !range !6, !noundef !7
  %6 = trunc nuw i8 %5 to i1
  %7 = load ptr, ptr %2, align 8
  %8 = getelementptr inbounds nuw i8, ptr %7, i64 8
  %9 = load double, ptr %8, align 8
  %. = select i1 %6, i64 24, i64 40
  %10 = getelementptr inbounds nuw i8, ptr %1, i64 %.
  %11 = load ptr, ptr %10, align 8
  %12 = load ptr, ptr %11, align 8
  %13 = getelementptr inbounds nuw i8, ptr %12, i64 8
  %14 = load double, ptr %13, align 8
  %15 = fsub double %14, %9
  %16 = getelementptr inbounds nuw i8, ptr %1, i64 48
  %17 = load double, ptr %16, align 8
  %18 = fcmp ogt double %17, %15
  ret i1 %18
}